; Function Attrs: mustprogress nofree norecurse nosync nounwind willreturn memory(read, argmem: none, inaccessiblemem: none) uwtable
define noundef zeroext i1 @_ZN7Imf_3_422isValidDeepCompressionENS_11CompressionE(i32 noundef %0) local_unnamed_addr #8 {
  %or.cond = icmp ult i32 %0, 10
  br i1 %or.cond, label %2, label %7

2:                                                ; preds = %1
  %3 = zext nneg i32 %0 to i64
  %4 = getelementptr inbounds nuw [10 x %"struct.Imf_3_4::CompressionDesc"], ptr @_ZN7Imf_3_4L8IdToDescE, i64 0, i64 %3, i32 4
  %5 = load i8, ptr %4, align 1, !tbaa !42, !range !40, !noundef !41
  %6 = trunc nuw i8 %5 to i1
  br label %7

7:                                                ; preds = %2, %1
  %8 = phi i1 [ false, %1 ], [ %6, %2 ]
  ret i1 %8
}